00000000: 09 01 00 00 02 64   LDA  612(R0),R1
00000006: 07 11 00 00 00 00   STI  R1,0(R1)
0000000c: 09 03 00 00 01 b6   LDA  438(R0),R3
00000012: 07 31 00 00 00 04   STI  R3,4(R1)
00000018: 0a 05               LDR  R0,R5
0000001a: 07 51 00 00 00 08   STI  R5,8(R1)
00000020: 08 15 00 00 00 08   LDI  8(R1),R5
00000026: 09 06 00 00 00 0b   LDA  11(R0),R6
0000002c: 04 65               SUB  R6,R5
0000002e: 07 51 00 00 00 0c   STI  R5,12(R1)
00000034: 0a 55               LDR  R5,R5
00000036: 0b 00 00 00 e6      BZE  230
0000003b: 09 07 00 00 02 58   LDA  600(R0),R7
00000041: 07 71 00 00 00 18   STI  R7,24(R1)
00000047: 09 02 00 00 02 1d   LDA  541(R0),R2
0000004d: 07 11 00 00 00 10   STI  R1,16(R1)
00000053: 09 11 00 00 00 10   LDA  16(R1),R1
00000059: 0e 00 00 00 10      BAL  R2,R3
0000005b: 08 15 00 00 00 08   LDI  8(R1),R5
00000061: 07 51 00 00 00 18   STI  R5,24(R1)
00000067: 09 02 00 00 01 b7   LDA  439(R0),R2
0000006d: 07 11 00 00 00 10   STI  R1,16(R1)
00000073: 09 11 00 00 00 10   LDA  16(R1),R1
00000079: 0e 00 00 00 10      BAL  R2,R3
0000007b: 09 05 00 00 02 5c   LDA  604(R0),R5
00000081: 07 51 00 00 00 18   STI  R5,24(R1)
00000087: 09 02 00 00 02 1d   LDA  541(R0),R2
0000008d: 07 11 00 00 00 10   STI  R1,16(R1)
00000093: 09 11 00 00 00 10   LDA  16(R1),R1
00000099: 0e 00 00 00 10      BAL  R2,R3
0000009b: 08 15 00 00 00 08   LDI  8(R1),R5
000000a1: 07 51 00 00 00 1c   STI  R5,28(R1)
000000a7: 09 02 00 00 01 2a   LDA  298(R0),R2
000000ad: 07 11 00 00 00 14   STI  R1,20(R1)
000000b3: 09 11 00 00 00 14   LDA  20(R1),R1
000000b9: 0e 00 00 00 14      BAL  R2,R3
000000bb: 0a 45               LDR  R4,R5
000000bd: 07 51 00 00 00 1c   STI  R5,28(R1)
000000c3: 07 51 00 00 00 10   STI  R5,16(R1)
000000c9: 09 02 00 00 01 b7   LDA  439(R0),R2
000000cf: 07 11 00 00 00 14   STI  R1,20(R1)
000000d5: 09 11 00 00 00 14   LDA  20(R1),R1
000000db: 0e 00 00 00 14      BAL  R2,R3
000000dd: 09 05 00 00 02 62   LDA  610(R0),R5
000000e3: 07 51 00 00 00 1c   STI  R5,28(R1)
000000e9: 09 02 00 00 02 1d   LDA  541(R0),R2
000000ef: 07 11 00 00 00 14   STI  R1,20(R1)
000000f5: 09 11 00 00 00 14   LDA  20(R1),R1
000000fb: 0e 00 00 00 14      BAL  R2,R3
000000fd: 09 05 00 00 00 01   LDA  1(R0),R5
00000103: 08 16 00 00 00 08   LDI  8(R1),R6
00000109: 03 65               ADD  R6,R5
0000010b: 07 51 00 00 00 14   STI  R5,20(R1)
00000111: 07 51 00 00 00 08   STI  R5,8(R1)
00000117: 0d ff ff ff 09      BRA  -247
0000011c: 08 12 00 00 00 04   LDI  4(R1),R2
00000122: 08 11 00 00 00 00   LDI  0(R1),R1
00000128: 0e 00 00 00 00      BAL  R2,R3
0000012a: 07 31 00 00 00 04   STI  R3,4(R1)
00000130: 08 15 00 00 00 08   LDI  8(R1),R5
00000136: 0b 00 00 00 58      BZE  88
0000013b: 09 06 00 00 00 01   LDA  1(R0),R6
00000141: 04 56               SUB  R5,R6
00000143: 07 61 00 00 00 10   STI  R6,16(R1)
00000149: 07 61 00 00 00 1c   STI  R6,28(R1)
0000014f: 09 02 00 00 01 2a   LDA  298(R0),R2
00000155: 07 11 00 00 00 14   STI  R1,20(R1)
0000015b: 09 11 00 00 00 14   LDA  20(R1),R1
00000161: 0e 00 00 00 14      BAL  R2,R3
00000163: 0a 45               LDR  R4,R5
00000165: 08 16 00 00 00 08   LDI  8(R1),R6
0000016b: 05 65               MUL  R6,R5
0000016d: 07 41 00 00 00 0c   STI  R4,12(R1)
00000173: 0a 54               LDR  R5,R4
00000175: 08 12 00 00 00 04   LDI  4(R1),R2
0000017b: 08 11 00 00 00 00   LDI  0(R1),R1
00000181: 0e 00 00 00 00      BAL  R2,R3
00000183: 07 51 00 00 00 14   STI  R5,20(R1)
00000189: 0d 00 00 00 1f      BRA  31
0000018e: 07 41 00 00 00 14   STI  R4,20(R1)
00000194: 09 04 00 00 00 01   LDA  1(R0),R4
0000019a: 08 12 00 00 00 04   LDI  4(R1),R2
000001a0: 08 11 00 00 00 00   LDI  0(R1),R1
000001a6: 0e 00 00 00 00      BAL  R2,R3
000001a8: 08 12 00 00 00 04   LDI  4(R1),R2
000001ae: 08 11 00 00 00 00   LDI  0(R1),R1
000001b4: 0e 00 00 00 00      BAL  R2,R3
000001b6: 00                  HALT
000001b7: 07 31 00 00 00 04   STI  R3,4(R1)
000001bd: 08 1f 00 00 00 08   LDI  8(R1),R15
000001c3: 09 05 00 00 00 0a   LDA  10(R0),R5
000001c9: 06 f5               DIV  R15,R5
000001cb: 0b 00 00 00 3b      BZE  59
000001d0: 07 51 00 00 00 0c   STI  R5,12(R1)
000001d6: 07 51 00 00 00 18   STI  R5,24(R1)
000001dc: 09 02 00 00 01 b7   LDA  439(R0),R2
000001e2: 07 11 00 00 00 10   STI  R1,16(R1)
000001e8: 09 11 00 00 00 10   LDA  16(R1),R1
000001ee: 0e 00 00 00 10      BAL  R2,R3
000001f0: 09 0f 00 00 00 0a   LDA  10(R0),R15
000001f6: 08 15 00 00 00 08   LDI  8(R1),R5
000001fc: 08 16 00 00 00 0c   LDI  12(R1),R6
00000202: 05 6f               MUL  R6,R15
00000204: 04 5f               SUB  R5,R15
00000206: 09 05 00 00 00 30   LDA  48(R0),R5
0000020c: 03 5f               ADD  R5,R15
0000020e: 02                  TRAP
0000020f: 08 12 00 00 00 04   LDI  4(R1),R2
00000215: 08 11 00 00 00 00   LDI  0(R1),R1
0000021b: 0e 00 00 00 00      BAL  R2,R3
0000021d: 07 31 00 00 00 04   STI  R3,4(R1)
00000223: 08 15 00 00 00 08   LDI  8(R1),R5
00000229: 09 07 01 00 00 00   LDA  16777216(R0),R7
0000022f: 08 56 00 00 00 00   LDI  0(R5),R6
00000235: 0a 7f               LDR  R7,R15
00000237: 06 6f               DIV  R6,R15
00000239: 0b 00 00 00 11      BZE  17
0000023e: 02                  TRAP
0000023f: 09 55 00 00 00 01   LDA  1(R5),R5
00000245: 0d ff ff ff ea      BRA  -22
0000024a: 08 12 00 00 00 04   LDI  4(R1),R2
00000250: 08 11 00 00 00 00   LDI  0(R1),R1
00000256: 0e 00 00 00 00      BAL  R2,R3
00000258: 66                  ???
00000259: 28                  ???
0000025a: 20                  ???
0000025b: 00                  HALT
0000025c: 20                  ???
0000025d: 29                  ???
0000025e: 20                  ???
0000025f: 3d                  ???
00000260: 20                  ???
00000261: 00                  HALT
00000262: 0a 00               LDR  R0,R0
00000264: 00                  HALT
