00000000: 09 01 00 00 02 c8   LDA  712(R0),R1
00000006: 07 11 00 00 00 00   STI  R1,0(R1)
0000000c: 09 03 00 00 02 0f   LDA  527(R0),R3
00000012: 07 31 00 00 00 04   STI  R3,4(R1)
00000018: 09 05 00 00 00 01   LDA  1(R0),R5
0000001e: 07 51 00 00 00 08   STI  R5,8(R1)
00000024: 08 15 00 00 00 08   LDI  8(R1),R5
0000002a: 09 06 00 00 00 0b   LDA  11(R0),R6
00000030: 04 65               SUB  R6,R5
00000032: 07 51 00 00 00 0c   STI  R5,12(R1)
00000038: 0a 55               LDR  R5,R5
0000003a: 0b 00 00 00 ac      BZE  172
0000003f: 09 07 00 00 02 c2   LDA  706(R0),R7
00000045: 07 71 00 00 00 18   STI  R7,24(R1)
0000004b: 09 02 00 00 02 76   LDA  630(R0),R2
00000051: 07 11 00 00 00 10   STI  R1,16(R1)
00000057: 09 11 00 00 00 10   LDA  16(R1),R1
0000005d: 0e 00 00 00 10      BAL  R2,R3
0000005f: 08 15 00 00 00 08   LDI  8(R1),R5
00000065: 07 51 00 00 00 18   STI  R5,24(R1)
0000006b: 09 02 00 00 02 10   LDA  528(R0),R2
00000071: 07 11 00 00 00 10   STI  R1,16(R1)
00000077: 09 11 00 00 00 10   LDA  16(R1),R1
0000007d: 0e 00 00 00 10      BAL  R2,R3
0000007f: 09 05 00 00 02 b1   LDA  689(R0),R5
00000085: 07 51 00 00 00 18   STI  R5,24(R1)
0000008b: 09 02 00 00 02 76   LDA  630(R0),R2
00000091: 07 11 00 00 00 10   STI  R1,16(R1)
00000097: 09 11 00 00 00 10   LDA  16(R1),R1
0000009d: 0e 00 00 00 10      BAL  R2,R3
0000009f: 08 15 00 00 00 08   LDI  8(R1),R5
000000a5: 07 51 00 00 00 1c   STI  R5,28(R1)
000000ab: 09 02 00 00 00 f4   LDA  244(R0),R2
000000b1: 07 11 00 00 00 14   STI  R1,20(R1)
000000b7: 09 11 00 00 00 14   LDA  20(R1),R1
000000bd: 0e 00 00 00 14      BAL  R2,R3
000000bf: 0a 45               LDR  R4,R5
000000c1: 07 51 00 00 00 1c   STI  R5,28(R1)
000000c7: 07 51 00 00 00 10   STI  R5,16(R1)
000000cd: 09 02 00 00 02 10   LDA  528(R0),R2
000000d3: 07 11 00 00 00 14   STI  R1,20(R1)
000000d9: 09 11 00 00 00 14   LDA  20(R1),R1
000000df: 0e 00 00 00 14      BAL  R2,R3
000000e1: 0d ff ff ff 43      BRA  -189
000000e6: 08 12 00 00 00 04   LDI  4(R1),R2
000000ec: 08 11 00 00 00 00   LDI  0(R1),R1
000000f2: 0e 00 00 00 00      BAL  R2,R3
000000f4: 07 31 00 00 00 04   STI  R3,4(R1)
000000fa: 09 05 00 00 00 01   LDA  1(R0),R5
00000100: 08 16 00 00 00 08   LDI  8(R1),R6
00000106: 04 65               SUB  R6,R5
00000108: 07 51 00 00 00 18   STI  R5,24(R1)
0000010e: 0a 55               LDR  R5,R5
00000110: 0b 00 00 00 19      BZE  25
00000115: 09 04 00 00 00 01   LDA  1(R0),R4
0000011b: 08 12 00 00 00 04   LDI  4(R1),R2
00000121: 08 11 00 00 00 00   LDI  0(R1),R1
00000127: 0e 00 00 00 00      BAL  R2,R3
00000129: 09 05 00 00 00 02   LDA  2(R0),R5
0000012f: 09 06 00 00 00 01   LDA  1(R0),R6
00000135: 09 07 00 00 00 02   LDA  2(R0),R7
0000013b: 07 51 00 00 00 0c   STI  R5,12(R1)
00000141: 07 61 00 00 00 14   STI  R6,20(R1)
00000147: 07 71 00 00 00 10   STI  R7,16(R1)
0000014d: 08 15 00 00 00 0c   LDI  12(R1),R5
00000153: 08 16 00 00 00 08   LDI  8(R1),R6
00000159: 04 65               SUB  R6,R5
0000015b: 07 51 00 00 00 1c   STI  R5,28(R1)
00000161: 0a 55               LDR  R5,R5
00000163: 0b 00 00 00 8a      BZE  138
00000168: 08 17 00 00 00 0c   LDI  12(R1),R7
0000016e: 07 71 00 00 00 2c   STI  R7,44(R1)
00000174: 09 02 00 00 02 10   LDA  528(R0),R2
0000017a: 07 11 00 00 00 24   STI  R1,36(R1)
00000180: 09 11 00 00 00 24   LDA  36(R1),R1
00000186: 0e 00 00 00 24      BAL  R2,R3
00000188: 09 05 00 00 02 b7   LDA  695(R0),R5
0000018e: 07 51 00 00 00 2c   STI  R5,44(R1)
00000194: 09 02 00 00 02 76   LDA  630(R0),R2
0000019a: 07 11 00 00 00 24   STI  R1,36(R1)
000001a0: 09 11 00 00 00 24   LDA  36(R1),R1
000001a6: 0e 00 00 00 24      BAL  R2,R3
000001a8: 08 15 00 00 00 14   LDI  20(R1),R5
000001ae: 08 16 00 00 00 10   LDI  16(R1),R6
000001b4: 07 61 00 00 00 14   STI  R6,20(R1)
000001ba: 03 56               ADD  R5,R6
000001bc: 07 61 00 00 00 24   STI  R6,36(R1)
000001c2: 09 07 00 00 00 01   LDA  1(R0),R7
000001c8: 08 18 00 00 00 0c   LDI  12(R1),R8
000001ce: 03 87               ADD  R8,R7
000001d0: 07 71 00 00 00 28   STI  R7,40(R1)
000001d6: 07 51 00 00 00 20   STI  R5,32(R1)
000001dc: 07 61 00 00 00 10   STI  R6,16(R1)
000001e2: 07 71 00 00 00 0c   STI  R7,12(R1)
000001e8: 0d ff ff ff 65      BRA  -155
000001ed: 08 14 00 00 00 10   LDI  16(R1),R4
000001f3: 08 12 00 00 00 04   LDI  4(R1),R2
000001f9: 08 11 00 00 00 00   LDI  0(R1),R1
000001ff: 0e 00 00 00 00      BAL  R2,R3
00000201: 08 12 00 00 00 04   LDI  4(R1),R2
00000207: 08 11 00 00 00 00   LDI  0(R1),R1
0000020d: 0e 00 00 00 00      BAL  R2,R3
0000020f: 00                  HALT
00000210: 07 31 00 00 00 04   STI  R3,4(R1)
00000216: 08 1f 00 00 00 08   LDI  8(R1),R15
0000021c: 09 05 00 00 00 0a   LDA  10(R0),R5
00000222: 06 f5               DIV  R15,R5
00000224: 0b 00 00 00 3b      BZE  59
00000229: 07 51 00 00 00 0c   STI  R5,12(R1)
0000022f: 07 51 00 00 00 18   STI  R5,24(R1)
00000235: 09 02 00 00 02 10   LDA  528(R0),R2
0000023b: 07 11 00 00 00 10   STI  R1,16(R1)
00000241: 09 11 00 00 00 10   LDA  16(R1),R1
00000247: 0e 00 00 00 10      BAL  R2,R3
00000249: 09 0f 00 00 00 0a   LDA  10(R0),R15
0000024f: 08 15 00 00 00 08   LDI  8(R1),R5
00000255: 08 16 00 00 00 0c   LDI  12(R1),R6
0000025b: 05 6f               MUL  R6,R15
0000025d: 04 5f               SUB  R5,R15
0000025f: 09 05 00 00 00 30   LDA  48(R0),R5
00000265: 03 5f               ADD  R5,R15
00000267: 02                  TRAP
00000268: 08 12 00 00 00 04   LDI  4(R1),R2
0000026e: 08 11 00 00 00 00   LDI  0(R1),R1
00000274: 0e 00 00 00 00      BAL  R2,R3
00000276: 07 31 00 00 00 04   STI  R3,4(R1)
0000027c: 08 15 00 00 00 08   LDI  8(R1),R5
00000282: 09 07 01 00 00 00   LDA  16777216(R0),R7
00000288: 08 56 00 00 00 00   LDI  0(R5),R6
0000028e: 0a 7f               LDR  R7,R15
00000290: 06 6f               DIV  R6,R15
00000292: 0b 00 00 00 11      BZE  17
00000297: 02                  TRAP
00000298: 09 55 00 00 00 01   LDA  1(R5),R5
0000029e: 0d ff ff ff ea      BRA  -22
000002a3: 08 12 00 00 00 04   LDI  4(R1),R2
000002a9: 08 11 00 00 00 00   LDI  0(R1),R1
000002af: 0e 00 00 00 00      BAL  R2,R3
000002b1: 20                  ???
000002b2: 29                  ???
000002b3: 20                  ???
000002b4: 3d                  ???
000002b5: 20                  ???
000002b6: 00                  HALT
000002b7: 20                  ???
000002b8: 69                  ???
000002b9: 74                  ???
000002ba: 65                  ???
000002bb: 72                  ???
000002bc: 61                  ???
000002bd: 74                  ???
000002be: 69                  ???
000002bf: 6f                  ???
000002c0: 6e                  ???
000002c1: 00                  HALT
000002c2: 66                  ???
000002c3: 69                  ???
000002c4: 62                  ???
000002c5: 28                  ???
000002c6: 20                  ???
000002c7: 00                  HALT
000002c8: 00                  HALT
